target datalayout = "e-m:e-p270:32:32-p271:32:32-p272:64:64-i64:64-i128:128-f80:128-n8:16:32:64-S128"
target triple = "x86_64-unknown-linux-gnu"

%"union.base::debug::ActivityData" = type { %struct.anon.0 }
%struct.anon.0 = type { i64 }
%"union.base::debug::(anonymous namespace)::ThreadRef" = type { i64 }
%"class.base::TimeTicks" = type { %"class.base::time_internal::TimeBase" }
%"class.base::time_internal::TimeBase" = type { i64 }
%"struct.base::debug::Activity" = type { i64, i64, [10 x i64], i8, [7 x i8], %"union.base::debug::ActivityData" }
%"class.base::debug::ThreadActivityTracker" = type <{ ptr, ptr, ptr, i32, i8, %"class.base::ThreadChecker", [2 x i8] }>
%"class.base::ThreadChecker" = type { i8 }
%"struct.base::debug::ThreadActivityTracker::Header" = type <{ %"struct.std::atomic", i32, %"struct.std::atomic.8", %"union.base::debug::(anonymous namespace)::ThreadRef", i64, i64, i32, %"struct.std::atomic", %"struct.std::atomic", [32 x i8], [4 x i8] }>
%"struct.std::atomic.8" = type { %"struct.std::__atomic_base.9" }
%"struct.std::__atomic_base.9" = type { i64 }
%"struct.std::atomic" = type { %"struct.std::__atomic_base" }
%"struct.std::__atomic_base" = type { i32 }

; Function Attrs: mustprogress nounwind uwtable
define linkonce_odr dso_local noundef i64 @_ZNK4base13time_internal8TimeBaseINS_9TimeTicksEE15ToInternalValueEv(ptr noundef nonnull align 8 dereferenceable(8) %this) #1 comdat align 2 {
entry:
  %this.addr = alloca ptr, align 8
  store ptr %this, ptr %this.addr, align 8
  %this1 = load ptr, ptr %this.addr, align 8
  %us_ = getelementptr inbounds %"class.base::time_internal::TimeBase", ptr %this1, i32 0, i32 0
  %0 = load i64, ptr %us_, align 8
  ret i64 %0
}

; Function Attrs: mustprogress uwtable
define dso_local void @_ZN4base5debug8Activity8FillFromEPS1_PKvNS1_4TypeERKNS0_12ActivityDataE(ptr noundef %activity, ptr noundef %origin, i8 noundef zeroext %type, ptr noundef nonnull align 8 dereferenceable(8) %data) #0 align 2 {
entry:
  %activity.addr = alloca ptr, align 8
  %origin.addr = alloca ptr, align 8
  %type.addr = alloca i8, align 1
  %data.addr = alloca ptr, align 8
  %ref.tmp = alloca %"class.base::TimeTicks", align 8
  store ptr %activity, ptr %activity.addr, align 8
  store ptr %origin, ptr %origin.addr, align 8
  store i8 %type, ptr %type.addr, align 1
  store ptr %data, ptr %data.addr, align 8
  %call = call i64 @_ZN4base9TimeTicks3NowEv()
  %coerce.dive = getelementptr inbounds %"class.base::TimeTicks", ptr %ref.tmp, i32 0, i32 0
  %coerce.dive1 = getelementptr inbounds %"class.base::time_internal::TimeBase", ptr %coerce.dive, i32 0, i32 0
  store i64 %call, ptr %coerce.dive1, align 8
  %call2 = call noundef i64 @_ZNK4base13time_internal8TimeBaseINS_9TimeTicksEE15ToInternalValueEv(ptr noundef nonnull align 8 dereferenceable(8) %ref.tmp)
  %0 = load ptr, ptr %activity.addr, align 8
  %time_internal = getelementptr inbounds %"struct.base::debug::Activity", ptr %0, i32 0, i32 0
  store i64 %call2, ptr %time_internal, align 8
  %1 = load ptr, ptr %origin.addr, align 8
  %2 = ptrtoint ptr %1 to i64
  %3 = load ptr, ptr %activity.addr, align 8
  %origin_address = getelementptr inbounds %"struct.base::debug::Activity", ptr %3, i32 0, i32 1
  store i64 %2, ptr %origin_address, align 8
  %4 = load i8, ptr %type.addr, align 1
  %5 = load ptr, ptr %activity.addr, align 8
  %activity_type = getelementptr inbounds %"struct.base::debug::Activity", ptr %5, i32 0, i32 3
  store i8 %4, ptr %activity_type, align 8
  %6 = load ptr, ptr %data.addr, align 8
  %7 = load ptr, ptr %activity.addr, align 8
  %data3 = getelementptr inbounds %"struct.base::debug::Activity", ptr %7, i32 0, i32 5
  call void @llvm.memcpy.p0.p0.i64(ptr align 8 %data3, ptr align 8 %6, i64 8, i1 false)
  %8 = load ptr, ptr %activity.addr, align 8
  %call_stack = getelementptr inbounds %"struct.base::debug::Activity", ptr %8, i32 0, i32 2
  %arrayidx = getelementptr inbounds [10 x i64], ptr %call_stack, i64 0, i64 0
  store i64 0, ptr %arrayidx, align 8
  ret void
}

; Function Attrs: mustprogress nounwind uwtable
define linkonce_odr dso_local noundef i32 @_ZStanSt12memory_orderSt23__memory_order_modifier(i32 noundef %__m, i32 noundef %__mod) #1 comdat {
entry:
  %__m.addr = alloca i32, align 4
  %__mod.addr = alloca i32, align 4
  store i32 %__m, ptr %__m.addr, align 4
  store i32 %__mod, ptr %__mod.addr, align 4
  %0 = load i32, ptr %__m.addr, align 4
  %1 = load i32, ptr %__mod.addr, align 4
  %and = and i32 %0, %1
  ret i32 %and
}

; Function Attrs: mustprogress uwtable
define dso_local void @_ZN4base5debug21ThreadActivityTracker12PushActivityEPKvNS0_8Activity4TypeERKNS0_12ActivityDataE(ptr noundef nonnull align 8 dereferenceable(30) %this, ptr noundef %origin, i8 noundef zeroext %type, ptr noundef nonnull align 8 dereferenceable(8) %data) #0 align 2 {
entry:
  %this.addr.i14 = alloca ptr, align 8
  %__i.addr.i15 = alloca i32, align 4
  %__m.addr.i16 = alloca i32, align 4
  %__b.i17 = alloca i32, align 4
  %.atomictmp.i18 = alloca i32, align 4
  %this.addr.i7 = alloca ptr, align 8
  %__i.addr.i = alloca i32, align 4
  %__m.addr.i8 = alloca i32, align 4
  %__b.i9 = alloca i32, align 4
  %.atomictmp.i = alloca i32, align 4
  %this.addr.i = alloca ptr, align 8
  %__m.addr.i = alloca i32, align 4
  %__b.i = alloca i32, align 4
  %atomic-temp.i = alloca i32, align 4
  %this.addr = alloca ptr, align 8
  %origin.addr = alloca ptr, align 8
  %type.addr = alloca i8, align 1
  %data.addr = alloca ptr, align 8
  %depth = alloca i32, align 4
  store ptr %this, ptr %this.addr, align 8
  store ptr %origin, ptr %origin.addr, align 8
  store i8 %type, ptr %type.addr, align 1
  store ptr %data, ptr %data.addr, align 8
  %this1 = load ptr, ptr %this.addr, align 8
  %header_ = getelementptr inbounds %"class.base::debug::ThreadActivityTracker", ptr %this1, i32 0, i32 1
  %0 = load ptr, ptr %header_, align 8
  %current_depth = getelementptr inbounds %"struct.base::debug::ThreadActivityTracker::Header", ptr %0, i32 0, i32 7
  store ptr %current_depth, ptr %this.addr.i, align 8
  store i32 0, ptr %__m.addr.i, align 4
  %this1.i = load ptr, ptr %this.addr.i, align 8
  %1 = load i32, ptr %__m.addr.i, align 4
  %call.i = call noundef i32 @_ZStanSt12memory_orderSt23__memory_order_modifier(i32 noundef %1, i32 noundef 65535)
  store i32 %call.i, ptr %__b.i, align 4
  %2 = load i32, ptr %__m.addr.i, align 4
  switch i32 %2, label %monotonic.i [
    i32 1, label %acquire.i
    i32 2, label %acquire.i
    i32 5, label %seqcst.i
  ]

monotonic.i:                                      ; preds = %entry
  %3 = load atomic i32, ptr %this1.i monotonic, align 4
  store i32 %3, ptr %atomic-temp.i, align 4
  br label %_ZNKSt13__atomic_baseIjE4loadESt12memory_order.exit

acquire.i:                                        ; preds = %entry, %entry
  %4 = load atomic i32, ptr %this1.i acquire, align 4
  store i32 %4, ptr %atomic-temp.i, align 4
  br label %_ZNKSt13__atomic_baseIjE4loadESt12memory_order.exit

seqcst.i:                                         ; preds = %entry
  %5 = load atomic i32, ptr %this1.i seq_cst, align 4
  store i32 %5, ptr %atomic-temp.i, align 4
  br label %_ZNKSt13__atomic_baseIjE4loadESt12memory_order.exit

_ZNKSt13__atomic_baseIjE4loadESt12memory_order.exit: ; preds = %seqcst.i, %acquire.i, %monotonic.i
  %6 = load i32, ptr %atomic-temp.i, align 4
  store i32 %6, ptr %depth, align 4
  %7 = load i32, ptr %depth, align 4
  %stack_slots_ = getelementptr inbounds %"class.base::debug::ThreadActivityTracker", ptr %this1, i32 0, i32 3
  %8 = load i32, ptr %stack_slots_, align 8
  %cmp = icmp uge i32 %7, %8
  br i1 %cmp, label %if.then, label %if.end

if.then:                                          ; preds = %_ZNKSt13__atomic_baseIjE4loadESt12memory_order.exit
  %header_2 = getelementptr inbounds %"class.base::debug::ThreadActivityTracker", ptr %this1, i32 0, i32 1
  %9 = load ptr, ptr %header_2, align 8
  %current_depth3 = getelementptr inbounds %"struct.base::debug::ThreadActivityTracker::Header", ptr %9, i32 0, i32 7
  %10 = load i32, ptr %depth, align 4
  %add = add i32 %10, 1
  store ptr %current_depth3, ptr %this.addr.i14, align 8
  store i32 %add, ptr %__i.addr.i15, align 4
  store i32 0, ptr %__m.addr.i16, align 4
  %this1.i19 = load ptr, ptr %this.addr.i14, align 8
  %11 = load i32, ptr %__m.addr.i16, align 4
  %call.i20 = call noundef i32 @_ZStanSt12memory_orderSt23__memory_order_modifier(i32 noundef %11, i32 noundef 65535)
  store i32 %call.i20, ptr %__b.i17, align 4
  %12 = load i32, ptr %__m.addr.i16, align 4
  %13 = load i32, ptr %__i.addr.i15, align 4
  store i32 %13, ptr %.atomictmp.i18, align 4
  switch i32 %12, label %monotonic.i23 [
    i32 3, label %release.i22
    i32 5, label %seqcst.i21
  ]

monotonic.i23:                                    ; preds = %if.then
  %14 = load i32, ptr %.atomictmp.i18, align 4
  store atomic i32 %14, ptr %this1.i19 monotonic, align 4
  br label %_ZNSt13__atomic_baseIjE5storeEjSt12memory_order.exit24

release.i22:                                      ; preds = %if.then
  %15 = load i32, ptr %.atomictmp.i18, align 4
  store atomic i32 %15, ptr %this1.i19 release, align 4
  br label %_ZNSt13__atomic_baseIjE5storeEjSt12memory_order.exit24

seqcst.i21:                                       ; preds = %if.then
  %16 = load i32, ptr %.atomictmp.i18, align 4
  store atomic i32 %16, ptr %this1.i19 seq_cst, align 4
  br label %_ZNSt13__atomic_baseIjE5storeEjSt12memory_order.exit24

_ZNSt13__atomic_baseIjE5storeEjSt12memory_order.exit24: ; preds = %seqcst.i21, %release.i22, %monotonic.i23
  br label %return

if.end:                                           ; preds = %_ZNKSt13__atomic_baseIjE4loadESt12memory_order.exit
  %stack_ = getelementptr inbounds %"class.base::debug::ThreadActivityTracker", ptr %this1, i32 0, i32 2
  %17 = load ptr, ptr %stack_, align 8
  %18 = load i32, ptr %depth, align 4
  %idxprom = zext i32 %18 to i64
  %arrayidx = getelementptr inbounds %"struct.base::debug::Activity", ptr %17, i64 %idxprom
  %19 = load ptr, ptr %origin.addr, align 8
  %20 = load i8, ptr %type.addr, align 1
  %21 = load ptr, ptr %data.addr, align 8
  call void @_ZN4base5debug8Activity8FillFromEPS1_PKvNS1_4TypeERKNS0_12ActivityDataE(ptr noundef %arrayidx, ptr noundef %19, i8 noundef zeroext %20, ptr noundef nonnull align 8 dereferenceable(8) %21)
  %header_4 = getelementptr inbounds %"class.base::debug::ThreadActivityTracker", ptr %this1, i32 0, i32 1
  %22 = load ptr, ptr %header_4, align 8
  %current_depth5 = getelementptr inbounds %"struct.base::debug::ThreadActivityTracker::Header", ptr %22, i32 0, i32 7
  %23 = load i32, ptr %depth, align 4
  %add6 = add i32 %23, 1
  store ptr %current_depth5, ptr %this.addr.i7, align 8
  store i32 %add6, ptr %__i.addr.i, align 4
  store i32 3, ptr %__m.addr.i8, align 4
  %this1.i10 = load ptr, ptr %this.addr.i7, align 8
  %24 = load i32, ptr %__m.addr.i8, align 4
  %call.i11 = call noundef i32 @_ZStanSt12memory_orderSt23__memory_order_modifier(i32 noundef %24, i32 noundef 65535)
  store i32 %call.i11, ptr %__b.i9, align 4
  %25 = load i32, ptr %__m.addr.i8, align 4
  %26 = load i32, ptr %__i.addr.i, align 4
  store i32 %26, ptr %.atomictmp.i, align 4
  switch i32 %25, label %monotonic.i13 [
    i32 3, label %release.i
    i32 5, label %seqcst.i12
  ]

monotonic.i13:                                    ; preds = %if.end
  %27 = load i32, ptr %.atomictmp.i, align 4
  store atomic i32 %27, ptr %this1.i10 monotonic, align 4
  br label %_ZNSt13__atomic_baseIjE5storeEjSt12memory_order.exit

release.i:                                        ; preds = %if.end
  %28 = load i32, ptr %.atomictmp.i, align 4
  store atomic i32 %28, ptr %this1.i10 release, align 4
  br label %_ZNSt13__atomic_baseIjE5storeEjSt12memory_order.exit

seqcst.i12:                                       ; preds = %if.end
  %29 = load i32, ptr %.atomictmp.i, align 4
  store atomic i32 %29, ptr %this1.i10 seq_cst, align 4
  br label %_ZNSt13__atomic_baseIjE5storeEjSt12memory_order.exit

_ZNSt13__atomic_baseIjE5storeEjSt12memory_order.exit: ; preds = %seqcst.i12, %release.i, %monotonic.i13
  br label %return

return:                                           ; preds = %_ZNSt13__atomic_baseIjE5storeEjSt12memory_order.exit, %_ZNSt13__atomic_baseIjE5storeEjSt12memory_order.exit24
  ret void
}