; Function Attrs: mustprogress uwtable
define dso_local void @_ZN4base5debug21ThreadActivityTracker12PushActivityEPKvNS0_8Activity4TypeERKNS0_12ActivityDataE(ptr nocapture noundef nonnull readonly align 8 dereferenceable(30) %this, ptr noundef %origin, i8 noundef zeroext %type, ptr nocapture noundef nonnull readonly align 8 dereferenceable(8) %data) local_unnamed_addr #1 align 2 {
entry:
  %header_ = getelementptr inbounds i8, ptr %this, i64 8
  %0 = load ptr, ptr %header_, align 8
  %current_depth = getelementptr inbounds i8, ptr %0, i64 44
  %1 = load atomic i32, ptr %current_depth monotonic, align 4
  %stack_slots_ = getelementptr inbounds i8, ptr %this, i64 24
  %2 = load i32, ptr %stack_slots_, align 8
  %cmp.not = icmp ult i32 %1, %2
  br i1 %cmp.not, label %if.end, label %if.then

if.then:                                          ; preds = %entry
  %add = add i32 %1, 1
  store atomic i32 %add, ptr %current_depth monotonic, align 4
  br label %return

if.end:                                           ; preds = %entry
  %stack_ = getelementptr inbounds i8, ptr %this, i64 16
  %3 = load ptr, ptr %stack_, align 8
  %idxprom = zext i32 %1 to i64
  %arrayidx = getelementptr inbounds %"struct.base::debug::Activity", ptr %3, i64 %idxprom
  %call.i = tail call i64 @_ZN4base9TimeTicks3NowEv()
  store i64 %call.i, ptr %arrayidx, align 8
  %4 = ptrtoint ptr %origin to i64
  %origin_address.i = getelementptr inbounds i8, ptr %arrayidx, i64 8
  store i64 %4, ptr %origin_address.i, align 8
  %activity_type.i = getelementptr inbounds i8, ptr %arrayidx, i64 96
  store i8 %type, ptr %activity_type.i, align 8
  %data3.i = getelementptr inbounds i8, ptr %arrayidx, i64 104
  %5 = load i64, ptr %data, align 8
  store i64 %5, ptr %data3.i, align 8
  %call_stack.i = getelementptr inbounds i8, ptr %arrayidx, i64 16
  store i64 0, ptr %call_stack.i, align 8
  %6 = load ptr, ptr %header_, align 8
  %add6 = add nuw i32 %1, 1
  %current_depth5 = getelementptr inbounds i8, ptr %6, i64 44
  store atomic i32 %add6, ptr %current_depth5 release, align 4
  br label %return

return:                                           ; preds = %if.end, %if.then
  ret void
}